target datalayout = "e-m:e-p270:32:32-p271:32:32-p272:64:64-i64:64-i128:128-f80:128-n8:16:32:64-S128"
target triple = "x86_64-pc-linux-gnu"

%"class.std::__cxx11::basic_string" = type { %"struct.std::__cxx11::basic_string<char>::_Alloc_hider", i64, %union.anon }
%"struct.std::__cxx11::basic_string<char>::_Alloc_hider" = type { ptr }
%union.anon = type { i64, [8 x i8] }
%"class.absl::debian2::AlphaNum" = type { %"class.absl::debian2::string_view", [32 x i8] }
%"class.absl::debian2::string_view" = type { ptr, i64 }
%"class.std::initializer_list.6" = type { ptr, i64 }

; Function Attrs: mustprogress nounwind uwtable
define linkonce_odr dso_local { ptr, i64 } @_ZNK4absl7debian28AlphaNum5PieceEv(ptr noundef nonnull align 8 dereferenceable(48) %0) #1 comdat align 2 {
  %2 = alloca %"class.absl::debian2::string_view", align 8
  %3 = alloca ptr, align 8
  store ptr %0, ptr %3, align 8, !tbaa !11
  %4 = load ptr, ptr %3, align 8
  %5 = getelementptr inbounds nuw %"class.absl::debian2::AlphaNum", ptr %4, i32 0, i32 0
  call void @llvm.memcpy.p0.p0.i64(ptr align 8 %2, ptr align 8 %5, i64 16, i1 false), !tbaa.struct !24
  %6 = load { ptr, i64 }, ptr %2, align 8
  ret { ptr, i64 } %6
}

; Function Attrs: inlinehint mustprogress uwtable
define linkonce_odr dso_local void @_ZN4absl7debian26StrCatIJN4i18n12phonenumbers12StringHolderES4_S4_S4_S4_S4_EEENSt7__cxx1112basic_stringIcSt11char_traitsIcESaIcEEERKNS0_8AlphaNumESD_SD_SD_SD_DpRKT_(ptr dead_on_unwind noalias writable sret(%"class.std::__cxx11::basic_string") align 8 %0, ptr noundef nonnull align 8 dereferenceable(48) %1, ptr noundef nonnull align 8 dereferenceable(48) %2, ptr noundef nonnull align 8 dereferenceable(48) %3, ptr noundef nonnull align 8 dereferenceable(48) %4, ptr noundef nonnull align 8 dereferenceable(48) %5, ptr noundef nonnull align 8 dereferenceable(48) %6, ptr noundef nonnull align 8 dereferenceable(48) %7, ptr noundef nonnull align 8 dereferenceable(48) %8, ptr noundef nonnull align 8 dereferenceable(48) %9, ptr noundef nonnull align 8 dereferenceable(48) %10, ptr noundef nonnull align 8 dereferenceable(48) %11) #4 comdat {
  %13 = alloca ptr, align 8
  %14 = alloca ptr, align 8
  %15 = alloca ptr, align 8
  %16 = alloca ptr, align 8
  %17 = alloca ptr, align 8
  %18 = alloca ptr, align 8
  %19 = alloca ptr, align 8
  %20 = alloca ptr, align 8
  %21 = alloca ptr, align 8
  %22 = alloca ptr, align 8
  %23 = alloca ptr, align 8
  %24 = alloca ptr, align 8
  %25 = alloca %"class.std::initializer_list.6", align 8
  %26 = alloca [11 x %"class.absl::debian2::string_view"], align 8
  store ptr %0, ptr %13, align 8
  store ptr %1, ptr %14, align 8, !tbaa !11
  store ptr %2, ptr %15, align 8, !tbaa !11
  store ptr %3, ptr %16, align 8, !tbaa !11
  store ptr %4, ptr %17, align 8, !tbaa !11
  store ptr %5, ptr %18, align 8, !tbaa !11
  store ptr %6, ptr %19, align 8, !tbaa !70
  store ptr %7, ptr %20, align 8, !tbaa !70
  store ptr %8, ptr %21, align 8, !tbaa !70
  store ptr %9, ptr %22, align 8, !tbaa !70
  store ptr %10, ptr %23, align 8, !tbaa !70
  store ptr %11, ptr %24, align 8, !tbaa !70
  call void @llvm.lifetime.start.p0(i64 176, ptr %26) #16
  %27 = load ptr, ptr %14, align 8, !tbaa !11
  %28 = call { ptr, i64 } @_ZNK4absl7debian28AlphaNum5PieceEv(ptr noundef nonnull align 8 dereferenceable(48) %27)
  %29 = getelementptr inbounds nuw { ptr, i64 }, ptr %26, i32 0, i32 0
  %30 = extractvalue { ptr, i64 } %28, 0
  store ptr %30, ptr %29, align 8
  %31 = getelementptr inbounds nuw { ptr, i64 }, ptr %26, i32 0, i32 1
  %32 = extractvalue { ptr, i64 } %28, 1
  store i64 %32, ptr %31, align 8
  %33 = getelementptr inbounds %"class.absl::debian2::string_view", ptr %26, i64 1
  %34 = load ptr, ptr %15, align 8, !tbaa !11
  %35 = call { ptr, i64 } @_ZNK4absl7debian28AlphaNum5PieceEv(ptr noundef nonnull align 8 dereferenceable(48) %34)
  %36 = getelementptr inbounds nuw { ptr, i64 }, ptr %33, i32 0, i32 0
  %37 = extractvalue { ptr, i64 } %35, 0
  store ptr %37, ptr %36, align 8
  %38 = getelementptr inbounds nuw { ptr, i64 }, ptr %33, i32 0, i32 1
  %39 = extractvalue { ptr, i64 } %35, 1
  store i64 %39, ptr %38, align 8
  %40 = getelementptr inbounds %"class.absl::debian2::string_view", ptr %26, i64 2
  %41 = load ptr, ptr %16, align 8, !tbaa !11
  %42 = call { ptr, i64 } @_ZNK4absl7debian28AlphaNum5PieceEv(ptr noundef nonnull align 8 dereferenceable(48) %41)
  %43 = getelementptr inbounds nuw { ptr, i64 }, ptr %40, i32 0, i32 0
  %44 = extractvalue { ptr, i64 } %42, 0
  store ptr %44, ptr %43, align 8
  %45 = getelementptr inbounds nuw { ptr, i64 }, ptr %40, i32 0, i32 1
  %46 = extractvalue { ptr, i64 } %42, 1
  store i64 %46, ptr %45, align 8
  %47 = getelementptr inbounds %"class.absl::debian2::string_view", ptr %26, i64 3
  %48 = load ptr, ptr %17, align 8, !tbaa !11
  %49 = call { ptr, i64 } @_ZNK4absl7debian28AlphaNum5PieceEv(ptr noundef nonnull align 8 dereferenceable(48) %48)
  %50 = getelementptr inbounds nuw { ptr, i64 }, ptr %47, i32 0, i32 0
  %51 = extractvalue { ptr, i64 } %49, 0
  store ptr %51, ptr %50, align 8
  %52 = getelementptr inbounds nuw { ptr, i64 }, ptr %47, i32 0, i32 1
  %53 = extractvalue { ptr, i64 } %49, 1
  store i64 %53, ptr %52, align 8
  %54 = getelementptr inbounds %"class.absl::debian2::string_view", ptr %26, i64 4
  %55 = load ptr, ptr %18, align 8, !tbaa !11
  %56 = call { ptr, i64 } @_ZNK4absl7debian28AlphaNum5PieceEv(ptr noundef nonnull align 8 dereferenceable(48) %55)
  %57 = getelementptr inbounds nuw { ptr, i64 }, ptr %54, i32 0, i32 0
  %58 = extractvalue { ptr, i64 } %56, 0
  store ptr %58, ptr %57, align 8
  %59 = getelementptr inbounds nuw { ptr, i64 }, ptr %54, i32 0, i32 1
  %60 = extractvalue { ptr, i64 } %56, 1
  store i64 %60, ptr %59, align 8
  %61 = getelementptr inbounds %"class.absl::debian2::string_view", ptr %26, i64 5
  %62 = load ptr, ptr %19, align 8, !tbaa !70
  %63 = call { ptr, i64 } @_ZNK4absl7debian28AlphaNum5PieceEv(ptr noundef nonnull align 8 dereferenceable(48) %62)
  %64 = getelementptr inbounds nuw { ptr, i64 }, ptr %61, i32 0, i32 0
  %65 = extractvalue { ptr, i64 } %63, 0
  store ptr %65, ptr %64, align 8
  %66 = getelementptr inbounds nuw { ptr, i64 }, ptr %61, i32 0, i32 1
  %67 = extractvalue { ptr, i64 } %63, 1
  store i64 %67, ptr %66, align 8
  %68 = getelementptr inbounds %"class.absl::debian2::string_view", ptr %26, i64 6
  %69 = load ptr, ptr %20, align 8, !tbaa !70
  %70 = call { ptr, i64 } @_ZNK4absl7debian28AlphaNum5PieceEv(ptr noundef nonnull align 8 dereferenceable(48) %69)
  %71 = getelementptr inbounds nuw { ptr, i64 }, ptr %68, i32 0, i32 0
  %72 = extractvalue { ptr, i64 } %70, 0
  store ptr %72, ptr %71, align 8
  %73 = getelementptr inbounds nuw { ptr, i64 }, ptr %68, i32 0, i32 1
  %74 = extractvalue { ptr, i64 } %70, 1
  store i64 %74, ptr %73, align 8
  %75 = getelementptr inbounds %"class.absl::debian2::string_view", ptr %26, i64 7
  %76 = load ptr, ptr %21, align 8, !tbaa !70
  %77 = call { ptr, i64 } @_ZNK4absl7debian28AlphaNum5PieceEv(ptr noundef nonnull align 8 dereferenceable(48) %76)
  %78 = getelementptr inbounds nuw { ptr, i64 }, ptr %75, i32 0, i32 0
  %79 = extractvalue { ptr, i64 } %77, 0
  store ptr %79, ptr %78, align 8
  %80 = getelementptr inbounds nuw { ptr, i64 }, ptr %75, i32 0, i32 1
  %81 = extractvalue { ptr, i64 } %77, 1
  store i64 %81, ptr %80, align 8
  %82 = getelementptr inbounds %"class.absl::debian2::string_view", ptr %26, i64 8
  %83 = load ptr, ptr %22, align 8, !tbaa !70
  %84 = call { ptr, i64 } @_ZNK4absl7debian28AlphaNum5PieceEv(ptr noundef nonnull align 8 dereferenceable(48) %83)
  %85 = getelementptr inbounds nuw { ptr, i64 }, ptr %82, i32 0, i32 0
  %86 = extractvalue { ptr, i64 } %84, 0
  store ptr %86, ptr %85, align 8
  %87 = getelementptr inbounds nuw { ptr, i64 }, ptr %82, i32 0, i32 1
  %88 = extractvalue { ptr, i64 } %84, 1
  store i64 %88, ptr %87, align 8
  %89 = getelementptr inbounds %"class.absl::debian2::string_view", ptr %26, i64 9
  %90 = load ptr, ptr %23, align 8, !tbaa !70
  %91 = call { ptr, i64 } @_ZNK4absl7debian28AlphaNum5PieceEv(ptr noundef nonnull align 8 dereferenceable(48) %90)
  %92 = getelementptr inbounds nuw { ptr, i64 }, ptr %89, i32 0, i32 0
  %93 = extractvalue { ptr, i64 } %91, 0
  store ptr %93, ptr %92, align 8
  %94 = getelementptr inbounds nuw { ptr, i64 }, ptr %89, i32 0, i32 1
  %95 = extractvalue { ptr, i64 } %91, 1
  store i64 %95, ptr %94, align 8
  %96 = getelementptr inbounds %"class.absl::debian2::string_view", ptr %26, i64 10
  %97 = load ptr, ptr %24, align 8, !tbaa !70
  %98 = call { ptr, i64 } @_ZNK4absl7debian28AlphaNum5PieceEv(ptr noundef nonnull align 8 dereferenceable(48) %97)
  %99 = getelementptr inbounds nuw { ptr, i64 }, ptr %96, i32 0, i32 0
  %100 = extractvalue { ptr, i64 } %98, 0
  store ptr %100, ptr %99, align 8
  %101 = getelementptr inbounds nuw { ptr, i64 }, ptr %96, i32 0, i32 1
  %102 = extractvalue { ptr, i64 } %98, 1
  store i64 %102, ptr %101, align 8
  %103 = getelementptr inbounds nuw %"class.std::initializer_list.6", ptr %25, i32 0, i32 0
  store ptr %26, ptr %103, align 8, !tbaa !74
  %104 = getelementptr inbounds nuw %"class.std::initializer_list.6", ptr %25, i32 0, i32 1
  store i64 11, ptr %104, align 8, !tbaa !76
  %105 = getelementptr inbounds nuw { ptr, i64 }, ptr %25, i32 0, i32 0
  %106 = load ptr, ptr %105, align 8
  %107 = getelementptr inbounds nuw { ptr, i64 }, ptr %25, i32 0, i32 1
  %108 = load i64, ptr %107, align 8
  call void @_ZN4absl7debian216strings_internal9CatPiecesB5cxx11ESt16initializer_listINS0_11string_viewEE(ptr dead_on_unwind writable sret(%"class.std::__cxx11::basic_string") align 8 %0, ptr %106, i64 %108)
  call void @llvm.lifetime.end.p0(i64 176, ptr %26) #16
  ret void
}

; Function Attrs: mustprogress uwtable
define dso_local void @_ZN4i18n12phonenumbers6StrCatB5cxx11ERKNS0_12StringHolderES3_S3_S3_S3_S3_S3_S3_S3_S3_S3_(ptr dead_on_unwind noalias writable sret(%"class.std::__cxx11::basic_string") align 8 %0, ptr noundef nonnull align 8 dereferenceable(48) %1, ptr noundef nonnull align 8 dereferenceable(48) %2, ptr noundef nonnull align 8 dereferenceable(48) %3, ptr noundef nonnull align 8 dereferenceable(48) %4, ptr noundef nonnull align 8 dereferenceable(48) %5, ptr noundef nonnull align 8 dereferenceable(48) %6, ptr noundef nonnull align 8 dereferenceable(48) %7, ptr noundef nonnull align 8 dereferenceable(48) %8, ptr noundef nonnull align 8 dereferenceable(48) %9, ptr noundef nonnull align 8 dereferenceable(48) %10, ptr noundef nonnull align 8 dereferenceable(48) %11) #0 {
  %13 = alloca ptr, align 8
  %14 = alloca ptr, align 8
  %15 = alloca ptr, align 8
  %16 = alloca ptr, align 8
  %17 = alloca ptr, align 8
  %18 = alloca ptr, align 8
  %19 = alloca ptr, align 8
  %20 = alloca ptr, align 8
  %21 = alloca ptr, align 8
  %22 = alloca ptr, align 8
  %23 = alloca ptr, align 8
  %24 = alloca ptr, align 8
  store ptr %0, ptr %13, align 8
  store ptr %1, ptr %14, align 8, !tbaa !70
  store ptr %2, ptr %15, align 8, !tbaa !70
  store ptr %3, ptr %16, align 8, !tbaa !70
  store ptr %4, ptr %17, align 8, !tbaa !70
  store ptr %5, ptr %18, align 8, !tbaa !70
  store ptr %6, ptr %19, align 8, !tbaa !70
  store ptr %7, ptr %20, align 8, !tbaa !70
  store ptr %8, ptr %21, align 8, !tbaa !70
  store ptr %9, ptr %22, align 8, !tbaa !70
  store ptr %10, ptr %23, align 8, !tbaa !70
  store ptr %11, ptr %24, align 8, !tbaa !70
  %25 = load ptr, ptr %14, align 8, !tbaa !70
  %26 = load ptr, ptr %15, align 8, !tbaa !70
  %27 = load ptr, ptr %16, align 8, !tbaa !70
  %28 = load ptr, ptr %17, align 8, !tbaa !70
  %29 = load ptr, ptr %18, align 8, !tbaa !70
  %30 = load ptr, ptr %19, align 8, !tbaa !70
  %31 = load ptr, ptr %20, align 8, !tbaa !70
  %32 = load ptr, ptr %21, align 8, !tbaa !70
  %33 = load ptr, ptr %22, align 8, !tbaa !70
  %34 = load ptr, ptr %23, align 8, !tbaa !70
  %35 = load ptr, ptr %24, align 8, !tbaa !70
  call void @_ZN4absl7debian26StrCatIJN4i18n12phonenumbers12StringHolderES4_S4_S4_S4_S4_EEENSt7__cxx1112basic_stringIcSt11char_traitsIcESaIcEEERKNS0_8AlphaNumESD_SD_SD_SD_DpRKT_(ptr dead_on_unwind writable sret(%"class.std::__cxx11::basic_string") align 8 %0, ptr noundef nonnull align 8 dereferenceable(48) %25, ptr noundef nonnull align 8 dereferenceable(48) %26, ptr noundef nonnull align 8 dereferenceable(48) %27, ptr noundef nonnull align 8 dereferenceable(48) %28, ptr noundef nonnull align 8 dereferenceable(48) %29, ptr noundef nonnull align 8 dereferenceable(48) %30, ptr noundef nonnull align 8 dereferenceable(48) %31, ptr noundef nonnull align 8 dereferenceable(48) %32, ptr noundef nonnull align 8 dereferenceable(48) %33, ptr noundef nonnull align 8 dereferenceable(48) %34, ptr noundef nonnull align 8 dereferenceable(48) %35)
  ret void
}